; ModuleID = '27/509.c'
source_filename = "27/509.c"
target datalayout = "e-m:e-p270:32:32-p271:32:32-p272:64:64-i64:64-f80:128-n8:16:32:64-S128"
target triple = "x86_64-pc-linux-gnu"

@.str = private unnamed_addr constant [3 x i8] c"%d\00", align 1
@.str.1 = private unnamed_addr constant [12 x i8] c"%lf %lf %lf\00", align 1
@.str.2 = private unnamed_addr constant [12 x i8] c"x1=x2=%.5f\0A\00", align 1
@.str.3 = private unnamed_addr constant [17 x i8] c"x1=%.5f;x2=%.5f\0A\00", align 1
@.str.4 = private unnamed_addr constant [29 x i8] c"x1=%.5f+%.5fi;x2=%.5f-%.5fi\0A\00", align 1

; Function Attrs: noinline nounwind uwtable
define dso_local i32 @main() #0 {
  %1 = alloca i32, align 4
  %2 = alloca i32, align 4
  %3 = alloca i32, align 4
  %4 = alloca i8*, align 8
  %5 = alloca i64, align 8
  %6 = alloca i64, align 8
  %7 = alloca i64, align 8
  %8 = alloca i64, align 8
  %9 = alloca i64, align 8
  %10 = alloca double, align 8
  %11 = alloca double, align 8
  store i32 0, i32* %1, align 4
  %12 = call i32 (i8*, ...) @__isoc99_scanf(i8* getelementptr inbounds ([3 x i8], [3 x i8]* @.str, i64 0, i64 0), i32* %2)
  %13 = load i32, i32* %2, align 4
  %14 = zext i32 %13 to i64
  %15 = call i8* @llvm.stacksave()
  store i8* %15, i8** %4, align 8
  %16 = alloca double, i64 %14, align 16
  store i64 %14, i64* %5, align 8
  %17 = load i32, i32* %2, align 4
  %18 = zext i32 %17 to i64
  %19 = alloca double, i64 %18, align 16
  store i64 %18, i64* %6, align 8
  %20 = load i32, i32* %2, align 4
  %21 = zext i32 %20 to i64
  %22 = alloca double, i64 %21, align 16
  store i64 %21, i64* %7, align 8
  %23 = load i32, i32* %2, align 4
  %24 = zext i32 %23 to i64
  %25 = alloca double, i64 %24, align 16
  store i64 %24, i64* %8, align 8
  %26 = load i32, i32* %2, align 4
  %27 = zext i32 %26 to i64
  %28 = alloca double, i64 %27, align 16
  store i64 %27, i64* %9, align 8
  store i32 0, i32* %3, align 4
  br label %29

29:                                               ; preds = %44, %0
  %30 = load i32, i32* %3, align 4
  %31 = load i32, i32* %2, align 4
  %32 = icmp slt i32 %30, %31
  br i1 %32, label %33, label %47

33:                                               ; preds = %29
  %34 = load i32, i32* %3, align 4
  %35 = sext i32 %34 to i64
  %36 = getelementptr inbounds double, double* %16, i64 %35
  %37 = load i32, i32* %3, align 4
  %38 = sext i32 %37 to i64
  %39 = getelementptr inbounds double, double* %19, i64 %38
  %40 = load i32, i32* %3, align 4
  %41 = sext i32 %40 to i64
  %42 = getelementptr inbounds double, double* %22, i64 %41
  %43 = call i32 (i8*, ...) @__isoc99_scanf(i8* getelementptr inbounds ([12 x i8], [12 x i8]* @.str.1, i64 0, i64 0), double* %36, double* %39, double* %42)
  br label %44

44:                                               ; preds = %33
  %45 = load i32, i32* %3, align 4
  %46 = add nsw i32 %45, 1
  store i32 %46, i32* %3, align 4
  br label %29

47:                                               ; preds = %29
  store i32 0, i32* %3, align 4
  br label %48

48:                                               ; preds = %182, %47
  %49 = load i32, i32* %3, align 4
  %50 = load i32, i32* %2, align 4
  %51 = icmp slt i32 %49, %50
  br i1 %51, label %52, label %185

52:                                               ; preds = %48
  %53 = load i32, i32* %3, align 4
  %54 = sext i32 %53 to i64
  %55 = getelementptr inbounds double, double* %19, i64 %54
  %56 = load double, double* %55, align 8
  %57 = load i32, i32* %3, align 4
  %58 = sext i32 %57 to i64
  %59 = getelementptr inbounds double, double* %19, i64 %58
  %60 = load double, double* %59, align 8
  %61 = fmul double %56, %60
  %62 = load i32, i32* %3, align 4
  %63 = sext i32 %62 to i64
  %64 = getelementptr inbounds double, double* %16, i64 %63
  %65 = load double, double* %64, align 8
  %66 = fmul double 4.000000e+00, %65
  %67 = load i32, i32* %3, align 4
  %68 = sext i32 %67 to i64
  %69 = getelementptr inbounds double, double* %22, i64 %68
  %70 = load double, double* %69, align 8
  %71 = fmul double %66, %70
  %72 = fsub double %61, %71
  store double %72, double* %11, align 8
  %73 = load i32, i32* %3, align 4
  %74 = sext i32 %73 to i64
  %75 = getelementptr inbounds double, double* %19, i64 %74
  %76 = load double, double* %75, align 8
  %77 = fneg double %76
  %78 = load i32, i32* %3, align 4
  %79 = sext i32 %78 to i64
  %80 = getelementptr inbounds double, double* %16, i64 %79
  %81 = load double, double* %80, align 8
  %82 = fmul double 2.000000e+00, %81
  %83 = fdiv double %77, %82
  store double %83, double* %10, align 8
  %84 = load double, double* %11, align 8
  %85 = call double @llvm.fabs.f64(double %84)
  %86 = fcmp ole double %85, 0x3EB0C6F7A0B5ED8D
  br i1 %86, label %87, label %97

87:                                               ; preds = %52
  %88 = load double, double* %10, align 8
  %89 = load i32, i32* %3, align 4
  %90 = sext i32 %89 to i64
  %91 = getelementptr inbounds double, double* %25, i64 %90
  store double %88, double* %91, align 8
  %92 = load i32, i32* %3, align 4
  %93 = sext i32 %92 to i64
  %94 = getelementptr inbounds double, double* %25, i64 %93
  %95 = load double, double* %94, align 8
  %96 = call i32 (i8*, ...) @printf(i8* getelementptr inbounds ([12 x i8], [12 x i8]* @.str.2, i64 0, i64 0), double %95)
  br label %97

97:                                               ; preds = %87, %52
  %98 = load double, double* %11, align 8
  %99 = fcmp ogt double %98, 0x3EB0C6F7A0B5ED8D
  br i1 %99, label %100, label %136

100:                                              ; preds = %97
  %101 = load double, double* %10, align 8
  %102 = load double, double* %11, align 8
  %103 = call double @sqrt(double %102) #2
  %104 = load i32, i32* %3, align 4
  %105 = sext i32 %104 to i64
  %106 = getelementptr inbounds double, double* %16, i64 %105
  %107 = load double, double* %106, align 8
  %108 = fmul double 2.000000e+00, %107
  %109 = fdiv double %103, %108
  %110 = fadd double %101, %109
  %111 = load i32, i32* %3, align 4
  %112 = sext i32 %111 to i64
  %113 = getelementptr inbounds double, double* %25, i64 %112
  store double %110, double* %113, align 8
  %114 = load double, double* %10, align 8
  %115 = load double, double* %11, align 8
  %116 = call double @sqrt(double %115) #2
  %117 = load i32, i32* %3, align 4
  %118 = sext i32 %117 to i64
  %119 = getelementptr inbounds double, double* %16, i64 %118
  %120 = load double, double* %119, align 8
  %121 = fmul double 2.000000e+00, %120
  %122 = fdiv double %116, %121
  %123 = fsub double %114, %122
  %124 = load i32, i32* %3, align 4
  %125 = sext i32 %124 to i64
  %126 = getelementptr inbounds double, double* %28, i64 %125
  store double %123, double* %126, align 8
  %127 = load i32, i32* %3, align 4
  %128 = sext i32 %127 to i64
  %129 = getelementptr inbounds double, double* %25, i64 %128
  %130 = load double, double* %129, align 8
  %131 = load i32, i32* %3, align 4
  %132 = sext i32 %131 to i64
  %133 = getelementptr inbounds double, double* %28, i64 %132
  %134 = load double, double* %133, align 8
  %135 = call i32 (i8*, ...) @printf(i8* getelementptr inbounds ([17 x i8], [17 x i8]* @.str.3, i64 0, i64 0), double %130, double %134)
  br label %136

136:                                              ; preds = %100, %97
  %137 = load double, double* %11, align 8
  %138 = fcmp olt double %137, 0xBEB0C6F7A0B5ED8D
  br i1 %138, label %139, label %181

139:                                              ; preds = %136
  %140 = load double, double* %10, align 8
  %141 = load i32, i32* %3, align 4
  %142 = sext i32 %141 to i64
  %143 = getelementptr inbounds double, double* %25, i64 %142
  store double %140, double* %143, align 8
  %144 = load double, double* %10, align 8
  %145 = call double @llvm.fabs.f64(double %144)
  %146 = fcmp olt double %145, 0x3EB0C6F7A0B5ED8D
  br i1 %146, label %147, label %151

147:                                              ; preds = %139
  %148 = load i32, i32* %3, align 4
  %149 = sext i32 %148 to i64
  %150 = getelementptr inbounds double, double* %25, i64 %149
  store double 0.000000e+00, double* %150, align 8
  br label %151

151:                                              ; preds = %147, %139
  %152 = load double, double* %11, align 8
  %153 = fneg double %152
  %154 = call double @sqrt(double %153) #2
  %155 = load i32, i32* %3, align 4
  %156 = sext i32 %155 to i64
  %157 = getelementptr inbounds double, double* %16, i64 %156
  %158 = load double, double* %157, align 8
  %159 = fmul double 2.000000e+00, %158
  %160 = fdiv double %154, %159
  %161 = load i32, i32* %3, align 4
  %162 = sext i32 %161 to i64
  %163 = getelementptr inbounds double, double* %28, i64 %162
  store double %160, double* %163, align 8
  %164 = load i32, i32* %3, align 4
  %165 = sext i32 %164 to i64
  %166 = getelementptr inbounds double, double* %25, i64 %165
  %167 = load double, double* %166, align 8
  %168 = load i32, i32* %3, align 4
  %169 = sext i32 %168 to i64
  %170 = getelementptr inbounds double, double* %28, i64 %169
  %171 = load double, double* %170, align 8
  %172 = load i32, i32* %3, align 4
  %173 = sext i32 %172 to i64
  %174 = getelementptr inbounds double, double* %25, i64 %173
  %175 = load double, double* %174, align 8
  %176 = load i32, i32* %3, align 4
  %177 = sext i32 %176 to i64
  %178 = getelementptr inbounds double, double* %28, i64 %177
  %179 = load double, double* %178, align 8
  %180 = call i32 (i8*, ...) @printf(i8* getelementptr inbounds ([29 x i8], [29 x i8]* @.str.4, i64 0, i64 0), double %167, double %171, double %175, double %179)
  br label %181

181:                                              ; preds = %151, %136
  br label %182

182:                                              ; preds = %181
  %183 = load i32, i32* %3, align 4
  %184 = add nsw i32 %183, 1
  store i32 %184, i32* %3, align 4
  br label %48

185:                                              ; preds = %48
  %186 = load i8*, i8** %4, align 8
  call void @llvm.stackrestore(i8* %186)
  %187 = load i32, i32* %1, align 4
  ret i32 %187
}

declare dso_local i32 @__isoc99_scanf(i8*, ...) #1

; Function Attrs: nounwind
declare i8* @llvm.stacksave() #2

; Function Attrs: nounwind readnone speculatable willreturn
declare double @llvm.fabs.f64(double) #3

declare dso_local i32 @printf(i8*, ...) #1

; Function Attrs: nounwind
declare dso_local double @sqrt(double) #4

; Function Attrs: nounwind
declare void @llvm.stackrestore(i8*) #2


!llvm.module.flags = !{!0}
!llvm.ident = !{!1}

!0 = !{i32 1, !"wchar_size", i32 4}
!1 = !{!"clang version 10.0.0-4ubuntu1 "}
